(dp0
S'users'
p1
(dp2
S'ceyhun'
p3
(dp4
S'sups'
p5
(lp6
(dp7
S'date'
p8
V2015-04-03T18:53:45.216Z
p9
sS'sup_id'
p10
V2b6fec1c-87d6-4fa6-897b-f196d0ad995b
p11
sS'sender_id'
p12
S'mismayil'
p13
sa(dp14
S'date'
p15
V2015-04-03T18:55:07.057Z
p16
sS'sup_id'
p17
Vd950b8e4-fa3a-41a5-976f-8d778d73e258
p18
sS'sender_id'
p19
S'mismayil'
p20
sa(dp21
S'date'
p22
V2015-04-03T20:46:22.479Z
p23
sS'sup_id'
p24
V2635edec-cd18-4e4b-b621-8e70916d56cc
p25
sS'sender_id'
p26
S'mismayil'
p27
sa(dp28
S'date'
p29
V2015-04-03T20:47:20.831Z
p30
sS'sup_id'
p31
Vaa9edc96-8e00-4b6f-b34a-c8f644c7791a
p32
sS'sender_id'
p33
S'mismayil'
p34
sasS'user_id'
p35
g3
sS'friends_list'
p36
(lp37
Vmismayil
p38
aVilkin
p39
aVceyhun
p40
aVnigar
p41
asS'full_name'
p42
S'Ceyhun'
p43
ssS'ilkin'
p44
(dp45
S'sups'
p46
(lp47
sS'user_id'
p48
g44
sS'full_name'
p49
S'Ilkin'
p50
sS'friends_list'
p51
(lp52
Vmismayil
p53
aVnigar
p54
assS'nigar'
p55
(dp56
S'sups'
p57
(lp58
(dp59
S'date'
p60
V2015-04-03T03:56:14.416Z
p61
sS'sup_id'
p62
V4a8e5586-6e0b-4428-99f2-0d07a9c634ae
p63
sS'sender_id'
p64
S'nigar'
p65
sa(dp66
S'date'
p67
V2015-04-03T03:56:15.348Z
p68
sS'sup_id'
p69
V0caebbf5-0eda-4bef-a251-99ccba3dcdbc
p70
sS'sender_id'
p71
S'nigar'
p72
sa(dp73
S'date'
p74
V2015-04-03T03:56:16.112Z
p75
sS'sup_id'
p76
Vaa780ff0-4813-41c1-a17b-5a246325468e
p77
sS'sender_id'
p78
S'nigar'
p79
sa(dp80
S'date'
p81
V2015-04-03T03:56:16.868Z
p82
sS'sup_id'
p83
Vf872d651-5c9b-493a-8944-effe5005bde8
p84
sS'sender_id'
p85
S'nigar'
p86
sa(dp87
S'date'
p88
V2015-04-03T03:56:17.575Z
p89
sS'sup_id'
p90
Vf0245380-077e-4b71-b1ce-e7f65e7230d8
p91
sS'sender_id'
p92
S'nigar'
p93
sa(dp94
S'date'
p95
V2015-04-03T03:56:18.751Z
p96
sS'sup_id'
p97
Va6dcf5d8-05ee-4114-a547-3cf12b83d85f
p98
sS'sender_id'
p99
S'nigar'
p100
sa(dp101
S'date'
p102
V2015-04-03T07:43:59.205Z
p103
sS'sup_id'
p104
V179dcaec-a090-44f0-9697-07c52f2204a6
p105
sS'sender_id'
p106
S'nigar'
p107
sa(dp108
S'date'
p109
V2015-04-03T07:44:01.880Z
p110
sS'sup_id'
p111
V3d20cf63-0bc9-4d7e-92d0-467d92cb0da9
p112
sS'sender_id'
p113
S'nigar'
p114
sa(dp115
S'date'
p116
V2015-04-03T20:44:57.002Z
p117
sS'sup_id'
p118
V423427d4-eb15-47c3-9669-7dce7e68699f
p119
sS'sender_id'
p120
S'mismayil'
p121
sasS'user_id'
p122
g55
sS'full_name'
p123
S'Nigar'
p124
sS'friends_list'
p125
(lp126
Vmismayil
p127
aVceyhun
p128
aVnigar
p129
assS'mismayil'
p130
(dp131
S'sups'
p132
(lp133
(dp134
S'date'
p135
V2015-04-03T20:47:51.410Z
p136
sS'sup_id'
p137
V57a6bad0-d4e6-46e1-a365-faba913c7aca
p138
sS'sender_id'
p139
S'mismayil'
p140
sasS'user_id'
p141
g130
sS'full_name'
p142
S'Mahammad'
p143
sS'friends_list'
p144
(lp145
Vceyhun
p146
aVmismayil
p147
aVnigar
p148
asss.